target datalayout = "e-m:e-p270:32:32-p271:32:32-p272:64:64-i64:64-i128:128-f80:128-n8:16:32:64-S128"
target triple = "x86_64-pc-linux-gnu"

%struct.CVodeMemRec = type { ptr, double, ptr, ptr, i32, i32, double, double, ptr, i32, i32, ptr, ptr, i32, [13 x ptr], ptr, ptr, ptr, ptr, ptr, ptr, ptr, ptr, ptr, i32, i32, double, i32, i32, i32, i32, i32, double, double, double, double, double, double, double, double, [14 x double], [6 x double], [13 x double], double, double, double, double, double, double, double, i32, double, i32, i64, i32, i32, i32, double, double, double, double, double, double, double, double, double, double, double, double, i64, i32, i64, i64, i64, i64, i64, i64, i64, i32, double, double, double, i64, i64, i64, i64, ptr, i32, ptr, i32, ptr, ptr, ptr, ptr, ptr, i64, double, i32, i64, double, double, double, i32, double, i32, i32, i32, i32, i32, ptr, i64, i32, [6 x [4 x double]], i32, i64, ptr, i32, ptr, ptr, double, double, double, ptr, ptr, ptr, double, double, i32, i32, i64, ptr, i32, ptr, i32, i32, [13 x double], [13 x double], [13 x ptr], i32 }

@.str = private unnamed_addr constant [117 x i8] c"generated/home/dtcxzyw/WorkSpace/Projects/compilers/llvm-opt-benchmark/bench/sundials/sundials/src/cvode/cvode_nls.c\00", align 1
@.str.1 = private unnamed_addr constant [26 x i8] c"cvode_mem = NULL illegal.\00", align 1
@__func__.cvNlsResidual = private unnamed_addr constant [14 x i8] c"cvNlsResidual\00", align 1

; Function Attrs: nounwind uwtable
define internal i32 @cvNlsResidual(ptr noundef %0, ptr noundef %1, ptr noundef %2) #0 {
  %4 = alloca i32, align 4
  %5 = alloca ptr, align 8
  %6 = alloca ptr, align 8
  %7 = alloca ptr, align 8
  %8 = alloca ptr, align 8
  %9 = alloca i32, align 4
  %10 = alloca i32, align 4
  store ptr %0, ptr %5, align 8, !tbaa !33
  store ptr %1, ptr %6, align 8, !tbaa !33
  store ptr %2, ptr %7, align 8, !tbaa !3
  call void @llvm.lifetime.start.p0(i64 8, ptr %8) #3
  call void @llvm.lifetime.start.p0(i64 4, ptr %9) #3
  %11 = load ptr, ptr %7, align 8, !tbaa !3
  %12 = icmp eq ptr %11, null
  br i1 %12, label %13, label %14

13:                                               ; preds = %3
  call void (ptr, i32, i32, ptr, ptr, ptr, ...) @cvProcessError(ptr noundef null, i32 noundef -21, i32 noundef 367, ptr noundef @__func__.cvNlsResidual, ptr noundef @.str, ptr noundef @.str.1)
  store i32 -21, ptr %4, align 4
  store i32 1, ptr %10, align 4
  br label %70

14:                                               ; preds = %3
  %15 = load ptr, ptr %7, align 8, !tbaa !3
  store ptr %15, ptr %8, align 8, !tbaa !9
  %16 = load ptr, ptr %8, align 8, !tbaa !9
  %17 = getelementptr inbounds nuw %struct.CVodeMemRec, ptr %16, i32 0, i32 14
  %18 = getelementptr inbounds [13 x ptr], ptr %17, i64 0, i64 0
  %19 = load ptr, ptr %18, align 8, !tbaa !33
  %20 = load ptr, ptr %5, align 8, !tbaa !33
  %21 = load ptr, ptr %8, align 8, !tbaa !9
  %22 = getelementptr inbounds nuw %struct.CVodeMemRec, ptr %21, i32 0, i32 16
  %23 = load ptr, ptr %22, align 8, !tbaa !34
  call void @N_VLinearSum(double noundef 1.000000e+00, ptr noundef %19, double noundef 1.000000e+00, ptr noundef %20, ptr noundef %23)
  %24 = load ptr, ptr %8, align 8, !tbaa !9
  %25 = getelementptr inbounds nuw %struct.CVodeMemRec, ptr %24, i32 0, i32 88
  %26 = load ptr, ptr %25, align 8, !tbaa !32
  %27 = load ptr, ptr %8, align 8, !tbaa !9
  %28 = getelementptr inbounds nuw %struct.CVodeMemRec, ptr %27, i32 0, i32 38
  %29 = load double, ptr %28, align 8, !tbaa !35
  %30 = load ptr, ptr %8, align 8, !tbaa !9
  %31 = getelementptr inbounds nuw %struct.CVodeMemRec, ptr %30, i32 0, i32 16
  %32 = load ptr, ptr %31, align 8, !tbaa !34
  %33 = load ptr, ptr %8, align 8, !tbaa !9
  %34 = getelementptr inbounds nuw %struct.CVodeMemRec, ptr %33, i32 0, i32 19
  %35 = load ptr, ptr %34, align 8, !tbaa !36
  %36 = load ptr, ptr %8, align 8, !tbaa !9
  %37 = getelementptr inbounds nuw %struct.CVodeMemRec, ptr %36, i32 0, i32 3
  %38 = load ptr, ptr %37, align 8, !tbaa !37
  %39 = call i32 %26(double noundef %29, ptr noundef %32, ptr noundef %35, ptr noundef %38)
  store i32 %39, ptr %9, align 4, !tbaa !29
  %40 = load ptr, ptr %8, align 8, !tbaa !9
  %41 = getelementptr inbounds nuw %struct.CVodeMemRec, ptr %40, i32 0, i32 72
  %42 = load i64, ptr %41, align 8, !tbaa !38
  %43 = add nsw i64 %42, 1
  store i64 %43, ptr %41, align 8, !tbaa !38
  %44 = load i32, ptr %9, align 4, !tbaa !29
  %45 = icmp slt i32 %44, 0
  br i1 %45, label %46, label %47

46:                                               ; preds = %14
  store i32 -8, ptr %4, align 4
  store i32 1, ptr %10, align 4
  br label %70

47:                                               ; preds = %14
  %48 = load i32, ptr %9, align 4, !tbaa !29
  %49 = icmp sgt i32 %48, 0
  br i1 %49, label %50, label %51

50:                                               ; preds = %47
  store i32 10, ptr %4, align 4
  store i32 1, ptr %10, align 4
  br label %70

51:                                               ; preds = %47
  %52 = load ptr, ptr %8, align 8, !tbaa !9
  %53 = getelementptr inbounds nuw %struct.CVodeMemRec, ptr %52, i32 0, i32 43
  %54 = load double, ptr %53, align 8, !tbaa !39
  %55 = load ptr, ptr %8, align 8, !tbaa !9
  %56 = getelementptr inbounds nuw %struct.CVodeMemRec, ptr %55, i32 0, i32 14
  %57 = getelementptr inbounds [13 x ptr], ptr %56, i64 0, i64 1
  %58 = load ptr, ptr %57, align 8, !tbaa !33
  %59 = load ptr, ptr %5, align 8, !tbaa !33
  %60 = load ptr, ptr %6, align 8, !tbaa !33
  call void @N_VLinearSum(double noundef %54, ptr noundef %58, double noundef 1.000000e+00, ptr noundef %59, ptr noundef %60)
  %61 = load ptr, ptr %8, align 8, !tbaa !9
  %62 = getelementptr inbounds nuw %struct.CVodeMemRec, ptr %61, i32 0, i32 44
  %63 = load double, ptr %62, align 8, !tbaa !40
  %64 = fneg double %63
  %65 = load ptr, ptr %8, align 8, !tbaa !9
  %66 = getelementptr inbounds nuw %struct.CVodeMemRec, ptr %65, i32 0, i32 19
  %67 = load ptr, ptr %66, align 8, !tbaa !36
  %68 = load ptr, ptr %6, align 8, !tbaa !33
  %69 = load ptr, ptr %6, align 8, !tbaa !33
  call void @N_VLinearSum(double noundef %64, ptr noundef %67, double noundef 1.000000e+00, ptr noundef %68, ptr noundef %69)
  store i32 0, ptr %4, align 4
  store i32 1, ptr %10, align 4
  br label %70

70:                                               ; preds = %51, %50, %46, %13
  call void @llvm.lifetime.end.p0(i64 4, ptr %9) #3
  call void @llvm.lifetime.end.p0(i64 8, ptr %8) #3
  %71 = load i32, ptr %4, align 4
  ret i32 %71
}